target datalayout = "e-m:e-p270:32:32-p271:32:32-p272:64:64-i64:64-i128:128-f80:128-n8:16:32:64-S128"
target triple = "x86_64-unknown-linux-gnu"

%"class.llvh::StringRef" = type { ptr, i64 }

; Function Attrs: mustprogress nounwind uwtable
define hidden noundef zeroext i1 @_ZN4llvh2cl6parserIfE5parseERNS0_6OptionENS_9StringRefES5_Rf(ptr noundef nonnull align 8 dereferenceable(8) %this, ptr noundef nonnull align 8 dereferenceable(145) %O, ptr %ArgName.coerce0, i64 %ArgName.coerce1, ptr %Arg.coerce0, i64 %Arg.coerce1, ptr noundef nonnull align 4 dereferenceable(4) %Val) #0 align 2 {
entry:
  %retval = alloca i1, align 1
  %ArgName = alloca %"class.llvh::StringRef", align 8
  %Arg = alloca %"class.llvh::StringRef", align 8
  %this.addr = alloca ptr, align 8
  %O.addr = alloca ptr, align 8
  %Val.addr = alloca ptr, align 8
  %dVal = alloca double, align 8
  %agg.tmp = alloca %"class.llvh::StringRef", align 8
  %0 = getelementptr inbounds { ptr, i64 }, ptr %ArgName, i32 0, i32 0
  store ptr %ArgName.coerce0, ptr %0, align 8
  %1 = getelementptr inbounds { ptr, i64 }, ptr %ArgName, i32 0, i32 1
  store i64 %ArgName.coerce1, ptr %1, align 8
  %2 = getelementptr inbounds { ptr, i64 }, ptr %Arg, i32 0, i32 0
  store ptr %Arg.coerce0, ptr %2, align 8
  %3 = getelementptr inbounds { ptr, i64 }, ptr %Arg, i32 0, i32 1
  store i64 %Arg.coerce1, ptr %3, align 8
  store ptr %this, ptr %this.addr, align 8
  store ptr %O, ptr %O.addr, align 8
  store ptr %Val, ptr %Val.addr, align 8
  %4 = load ptr, ptr %O.addr, align 8
  call void @llvm.memcpy.p0.p0.i64(ptr align 8 %agg.tmp, ptr align 8 %Arg, i64 16, i1 false)
  %5 = getelementptr inbounds { ptr, i64 }, ptr %agg.tmp, i32 0, i32 0
  %6 = load ptr, ptr %5, align 8
  %7 = getelementptr inbounds { ptr, i64 }, ptr %agg.tmp, i32 0, i32 1
  %8 = load i64, ptr %7, align 8
  %call = call noundef zeroext i1 @_ZL11parseDoubleRN4llvh2cl6OptionENS_9StringRefERd(ptr noundef nonnull align 8 dereferenceable(145) %4, ptr %6, i64 %8, ptr noundef nonnull align 8 dereferenceable(8) %dVal)
  br i1 %call, label %if.then, label %if.end

if.then:                                          ; preds = %entry
  store i1 true, ptr %retval, align 1
  br label %return

if.end:                                           ; preds = %entry
  %9 = load double, ptr %dVal, align 8
  %conv = fptrunc double %9 to float
  %10 = load ptr, ptr %Val.addr, align 8
  store float %conv, ptr %10, align 4
  store i1 false, ptr %retval, align 1
  br label %return

return:                                           ; preds = %if.end, %if.then
  %11 = load i1, ptr %retval, align 1
  ret i1 %11
}