; Function Attrs: mustprogress nounwind uwtable
define hidden noundef zeroext i1 @_ZN4llvh2cl6parserIfE5parseERNS0_6OptionENS_9StringRefES5_Rf(ptr nocapture noundef nonnull readnone align 8 dereferenceable(8) %this, ptr nocapture noundef nonnull readonly align 8 dereferenceable(145) %O, ptr nocapture readnone %ArgName.coerce0, i64 %ArgName.coerce1, ptr %Arg.coerce0, i64 %Arg.coerce1, ptr nocapture noundef nonnull writeonly align 4 dereferenceable(4) %Val) local_unnamed_addr #0 align 2 {
entry:
  %dVal = alloca double, align 8
  %call = call fastcc noundef zeroext i1 @_ZL11parseDoubleRN4llvh2cl6OptionENS_9StringRefERd(ptr noundef nonnull align 8 dereferenceable(145) %O, ptr %Arg.coerce0, i64 %Arg.coerce1, ptr noundef nonnull align 8 dereferenceable(8) %dVal)
  br i1 %call, label %return, label %if.end

if.end:                                           ; preds = %entry
  %0 = load double, ptr %dVal, align 8
  %conv = fptrunc double %0 to float
  store float %conv, ptr %Val, align 4
  br label %return

return:                                           ; preds = %entry, %if.end
  ret i1 %call
}